target datalayout = "e-m:e-p270:32:32-p271:32:32-p272:64:64-i64:64-i128:128-f80:128-n8:16:32:64-S128"
target triple = "x86_64-pc-linux-gnu"

%struct.pmix_lock_t = type { i32, %struct.pmix_mutex_t, %union.pthread_cond_t, i8 }
%struct.pmix_mutex_t = type { %struct.pmix_object_t, %union.pthread_mutex_t }
%struct.pmix_object_t = type { %union.pthread_mutex_t, ptr, i32, %struct.pmix_tma }
%struct.pmix_tma = type { ptr, ptr, ptr, ptr, ptr, ptr, ptr, ptr }
%union.pthread_mutex_t = type { %struct.__pthread_mutex_s }
%struct.__pthread_mutex_s = type { i32, i32, i32, i32, i32, i16, i16, %struct.__pthread_internal_list }
%struct.__pthread_internal_list = type { ptr, ptr }
%union.pthread_cond_t = type { %struct.__pthread_cond_s }
%struct.__pthread_cond_s = type { %union.__atomic_wide_counter, %union.__atomic_wide_counter, [2 x i32], [2 x i32], i32, i32, [2 x i32] }
%union.__atomic_wide_counter = type { i64 }
%struct.pmix_value = type { i16, %union.anon.9 }
%union.anon.9 = type { %struct.pmix_envar_t }
%struct.pmix_envar_t = type { ptr, ptr, i8 }
%struct.timeval = type { i64, i64 }
%struct.pmix_list_t = type { %struct.pmix_object_t, %struct.pmix_list_item_t, i64 }
%struct.pmix_list_item_t = type { %struct.pmix_object_t, ptr, ptr, i32 }
%struct.pmix_class_t = type { ptr, ptr, ptr, ptr, i32, i32, ptr, ptr, i64 }
%struct.pmix_cb_t = type { %struct.pmix_list_item_t, %struct.event, %struct.pmix_lock_t, i8, i32, i32, i8, %struct.pmix_buffer_t, %union.anon.8, i64, ptr, %struct.pmix_name_t, ptr, ptr, ptr, ptr, i64, ptr, i64, ptr, i8, i64, %struct.pmix_list_t, i8, ptr, i8, ptr, ptr }
%struct.event = type { %struct.event_callback, %union.anon.0, i32, ptr, %union.anon.2, i16, i16, %struct.timeval }
%struct.event_callback = type { %struct.anon, i16, i8, i8, %union.anon, ptr }
%struct.anon = type { ptr, ptr }
%union.anon = type { ptr }
%union.anon.0 = type { %struct.anon.1 }
%struct.anon.1 = type { ptr, ptr }
%union.anon.2 = type { %struct.anon.3 }
%struct.anon.3 = type { %struct.anon.4, %struct.timeval }
%struct.anon.4 = type { ptr, ptr }
%struct.pmix_buffer_t = type { %struct.pmix_object_t, i8, ptr, ptr, ptr, i64, i64 }
%union.anon.8 = type { ptr }
%struct.pmix_name_t = type { ptr, i32 }
%struct.pmix_fabric_s = type { ptr, i64, ptr, i64, ptr }
%struct.pmix_info = type { [512 x i8], i32, %struct.pmix_value }

@.str.8 = private unnamed_addr constant [21 x i8] c"pthread_mutex_lock()\00", align 1

; Function Attrs: inlinehint nounwind uwtable
define internal void @pmix_mutex_unlock(ptr noundef %0) #2 {
  %2 = alloca ptr, align 8
  store ptr %0, ptr %2, align 8, !tbaa !68
  %3 = load ptr, ptr %2, align 8, !tbaa !68
  %4 = getelementptr inbounds nuw %struct.pmix_mutex_t, ptr %3, i32 0, i32 1
  %5 = call i32 @pthread_mutex_unlock(ptr noundef %4) #10
  ret void
}

; Function Attrs: inlinehint nounwind uwtable
define internal void @pmix_atomic_wmb() #2 {
  fence release
  ret void
}

; Function Attrs: inlinehint nounwind uwtable
define internal void @pmix_mutex_lock(ptr noundef %0) #2 {
  %2 = alloca ptr, align 8
  store ptr %0, ptr %2, align 8, !tbaa !68
  %3 = load ptr, ptr %2, align 8, !tbaa !68
  %4 = getelementptr inbounds nuw %struct.pmix_mutex_t, ptr %3, i32 0, i32 1
  %5 = call i32 @pthread_mutex_lock(ptr noundef %4) #10
  ret void
}

; Function Attrs: inlinehint nounwind uwtable
define internal void @pmix_tma_free(ptr noundef %0, ptr noundef %1) #2 {
  %3 = alloca ptr, align 8
  %4 = alloca ptr, align 8
  store ptr %0, ptr %3, align 8, !tbaa !72
  store ptr %1, ptr %4, align 8, !tbaa !83
  %5 = load ptr, ptr %3, align 8, !tbaa !72
  %6 = icmp ne ptr null, %5
  br i1 %6, label %7, label %13

7:                                                ; preds = %2
  %8 = load ptr, ptr %3, align 8, !tbaa !72
  %9 = getelementptr inbounds nuw %struct.pmix_tma, ptr %8, i32 0, i32 5
  %10 = load ptr, ptr %9, align 8, !tbaa !125
  %11 = load ptr, ptr %3, align 8, !tbaa !72
  %12 = load ptr, ptr %4, align 8, !tbaa !83
  call void %10(ptr noundef %11, ptr noundef %12)
  br label %15

13:                                               ; preds = %2
  %14 = load ptr, ptr %4, align 8, !tbaa !83
  call void @free(ptr noundef %14) #10
  br label %15

15:                                               ; preds = %13, %7
  ret void
}

; Function Attrs: inlinehint nounwind uwtable
define internal void @pmix_obj_run_destructors(ptr noundef %0) #2 {
  %2 = alloca ptr, align 8
  %3 = alloca ptr, align 8
  store ptr %0, ptr %2, align 8, !tbaa !70
  call void @llvm.lifetime.start.p0(i64 8, ptr %3) #10
  %4 = load ptr, ptr %2, align 8, !tbaa !70
  %5 = getelementptr inbounds nuw %struct.pmix_object_t, ptr %4, i32 0, i32 1
  %6 = load ptr, ptr %5, align 8, !tbaa !51
  %7 = getelementptr inbounds nuw %struct.pmix_class_t, ptr %6, i32 0, i32 7
  %8 = load ptr, ptr %7, align 8, !tbaa !121
  store ptr %8, ptr %3, align 8, !tbaa !83
  br label %9

9:                                                ; preds = %13, %1
  %10 = load ptr, ptr %3, align 8, !tbaa !83
  %11 = load ptr, ptr %10, align 8, !tbaa !83
  %12 = icmp ne ptr null, %11
  br i1 %12, label %13, label %19

13:                                               ; preds = %9
  %14 = load ptr, ptr %3, align 8, !tbaa !83
  %15 = load ptr, ptr %14, align 8, !tbaa !83
  %16 = load ptr, ptr %2, align 8, !tbaa !70
  call void %15(ptr noundef %16)
  %17 = load ptr, ptr %3, align 8, !tbaa !83
  %18 = getelementptr inbounds nuw ptr, ptr %17, i32 1
  store ptr %18, ptr %3, align 8, !tbaa !83
  br label %9, !llvm.loop !122

19:                                               ; preds = %9
  call void @llvm.lifetime.end.p0(i64 8, ptr %3) #10
  ret void
}

; Function Attrs: alwaysinline nounwind uwtable
define internal i32 @pmix_obj_update(ptr noundef %0, i32 noundef %1) #5 {
  %3 = alloca ptr, align 8
  %4 = alloca i32, align 4
  %5 = alloca i32, align 4
  store ptr %0, ptr %3, align 8, !tbaa !70
  store i32 %1, ptr %4, align 4, !tbaa !48
  call void @llvm.lifetime.start.p0(i64 4, ptr %5) #10
  %6 = load ptr, ptr %3, align 8, !tbaa !70
  %7 = getelementptr inbounds nuw %struct.pmix_object_t, ptr %6, i32 0, i32 0
  %8 = call i32 @pthread_mutex_lock(ptr noundef %7) #10
  store i32 %8, ptr %5, align 4, !tbaa !48
  %9 = load i32, ptr %5, align 4, !tbaa !48
  %10 = icmp eq i32 %9, 35
  br i1 %10, label %11, label %14

11:                                               ; preds = %2
  %12 = load i32, ptr %5, align 4, !tbaa !48
  %13 = call ptr @__errno_location() #11
  store i32 %12, ptr %13, align 4, !tbaa !48
  call void @perror(ptr noundef @.str.8)
  call void @abort() #12
  unreachable

14:                                               ; preds = %2
  %15 = load i32, ptr %4, align 4, !tbaa !48
  %16 = load ptr, ptr %3, align 8, !tbaa !70
  %17 = getelementptr inbounds nuw %struct.pmix_object_t, ptr %16, i32 0, i32 2
  %18 = load i32, ptr %17, align 8, !tbaa !52
  %19 = add nsw i32 %18, %15
  store i32 %19, ptr %17, align 8, !tbaa !52
  store i32 %19, ptr %5, align 4, !tbaa !48
  %20 = load ptr, ptr %3, align 8, !tbaa !70
  %21 = getelementptr inbounds nuw %struct.pmix_object_t, ptr %20, i32 0, i32 0
  %22 = call i32 @pthread_mutex_unlock(ptr noundef %21) #10
  %23 = load i32, ptr %5, align 4, !tbaa !48
  call void @llvm.lifetime.end.p0(i64 4, ptr %5) #10
  ret i32 %23
}

; Function Attrs: nounwind uwtable
define internal void @fcb(i32 noundef %0, ptr noundef %1, i64 noundef %2, ptr noundef %3, ptr noundef %4, ptr noundef %5) #0 {
  %7 = alloca i32, align 4
  %8 = alloca ptr, align 8
  %9 = alloca i64, align 8
  %10 = alloca ptr, align 8
  %11 = alloca ptr, align 8
  %12 = alloca ptr, align 8
  %13 = alloca ptr, align 8
  %14 = alloca i64, align 8
  %15 = alloca ptr, align 8
  store i32 %0, ptr %7, align 4, !tbaa !48
  store ptr %1, ptr %8, align 8, !tbaa !8
  store i64 %2, ptr %9, align 8, !tbaa !10
  store ptr %3, ptr %10, align 8, !tbaa !83
  store ptr %4, ptr %11, align 8, !tbaa !83
  store ptr %5, ptr %12, align 8, !tbaa !83
  call void @llvm.lifetime.start.p0(i64 8, ptr %13) #10
  %16 = load ptr, ptr %10, align 8, !tbaa !83
  store ptr %16, ptr %13, align 8, !tbaa !83
  call void @llvm.lifetime.start.p0(i64 8, ptr %14) #10
  %17 = load i32, ptr %7, align 4, !tbaa !48
  %18 = load ptr, ptr %13, align 8, !tbaa !83
  %19 = getelementptr inbounds nuw %struct.pmix_cb_t, ptr %18, i32 0, i32 4
  store i32 %17, ptr %19, align 4, !tbaa !67
  %20 = load i32, ptr %7, align 4, !tbaa !48
  %21 = icmp eq i32 0, %20
  br i1 %21, label %22, label %57

22:                                               ; preds = %6
  %23 = load i64, ptr %9, align 8, !tbaa !10
  %24 = icmp ult i64 0, %23
  br i1 %24, label %25, label %57

25:                                               ; preds = %22
  %26 = load i64, ptr %9, align 8, !tbaa !10
  %27 = call ptr @PMIx_Info_create(i64 noundef %26)
  %28 = load ptr, ptr %13, align 8, !tbaa !83
  %29 = getelementptr inbounds nuw %struct.pmix_cb_t, ptr %28, i32 0, i32 26
  %30 = load ptr, ptr %29, align 8, !tbaa !53
  %31 = getelementptr inbounds nuw %struct.pmix_fabric_s, ptr %30, i32 0, i32 2
  store ptr %27, ptr %31, align 8, !tbaa !132
  %32 = load i64, ptr %9, align 8, !tbaa !10
  %33 = load ptr, ptr %13, align 8, !tbaa !83
  %34 = getelementptr inbounds nuw %struct.pmix_cb_t, ptr %33, i32 0, i32 26
  %35 = load ptr, ptr %34, align 8, !tbaa !53
  %36 = getelementptr inbounds nuw %struct.pmix_fabric_s, ptr %35, i32 0, i32 3
  store i64 %32, ptr %36, align 8, !tbaa !130
  store i64 0, ptr %14, align 8, !tbaa !10
  br label %37

37:                                               ; preds = %53, %25
  %38 = load i64, ptr %14, align 8, !tbaa !10
  %39 = load i64, ptr %9, align 8, !tbaa !10
  %40 = icmp ult i64 %38, %39
  br i1 %40, label %41, label %56

41:                                               ; preds = %37
  %42 = load ptr, ptr %13, align 8, !tbaa !83
  %43 = getelementptr inbounds nuw %struct.pmix_cb_t, ptr %42, i32 0, i32 26
  %44 = load ptr, ptr %43, align 8, !tbaa !53
  %45 = getelementptr inbounds nuw %struct.pmix_fabric_s, ptr %44, i32 0, i32 2
  %46 = load ptr, ptr %45, align 8, !tbaa !132
  %47 = load i64, ptr %14, align 8, !tbaa !10
  %48 = getelementptr inbounds nuw %struct.pmix_info, ptr %46, i64 %47
  %49 = load ptr, ptr %8, align 8, !tbaa !8
  %50 = load i64, ptr %14, align 8, !tbaa !10
  %51 = getelementptr inbounds nuw %struct.pmix_info, ptr %49, i64 %50
  %52 = call i32 @PMIx_Info_xfer(ptr noundef %48, ptr noundef %51)
  br label %53

53:                                               ; preds = %41
  %54 = load i64, ptr %14, align 8, !tbaa !10
  %55 = add i64 %54, 1
  store i64 %55, ptr %14, align 8, !tbaa !10
  br label %37, !llvm.loop !142

56:                                               ; preds = %37
  br label %57

57:                                               ; preds = %56, %22, %6
  %58 = load ptr, ptr %11, align 8, !tbaa !83
  %59 = icmp ne ptr null, %58
  br i1 %59, label %60, label %63

60:                                               ; preds = %57
  %61 = load ptr, ptr %11, align 8, !tbaa !83
  %62 = load ptr, ptr %12, align 8, !tbaa !83
  call void %61(ptr noundef %62)
  br label %63

63:                                               ; preds = %60, %57
  %64 = load ptr, ptr %13, align 8, !tbaa !83
  %65 = getelementptr inbounds nuw %struct.pmix_cb_t, ptr %64, i32 0, i32 8
  %66 = load ptr, ptr %65, align 8, !tbaa !86
  %67 = icmp ne ptr null, %66
  br i1 %67, label %68, label %98

68:                                               ; preds = %63
  %69 = load ptr, ptr %13, align 8, !tbaa !83
  %70 = getelementptr inbounds nuw %struct.pmix_cb_t, ptr %69, i32 0, i32 8
  %71 = load ptr, ptr %70, align 8, !tbaa !86
  %72 = load i32, ptr %7, align 4, !tbaa !48
  %73 = load ptr, ptr %13, align 8, !tbaa !83
  %74 = getelementptr inbounds nuw %struct.pmix_cb_t, ptr %73, i32 0, i32 10
  %75 = load ptr, ptr %74, align 8, !tbaa !112
  call void %71(i32 noundef %72, ptr noundef %75)
  br label %76

76:                                               ; preds = %68
  call void @llvm.lifetime.start.p0(i64 8, ptr %15) #10
  %77 = load ptr, ptr %13, align 8, !tbaa !83
  store ptr %77, ptr %15, align 8, !tbaa !70
  %78 = load ptr, ptr %15, align 8, !tbaa !70
  %79 = call i32 @pmix_obj_update(ptr noundef %78, i32 noundef -1)
  %80 = icmp eq i32 0, %79
  br i1 %80, label %81, label %95

81:                                               ; preds = %76
  %82 = load ptr, ptr %15, align 8, !tbaa !70
  call void @pmix_obj_run_destructors(ptr noundef %82)
  %83 = load ptr, ptr %15, align 8, !tbaa !70
  %84 = getelementptr inbounds nuw %struct.pmix_object_t, ptr %83, i32 0, i32 3
  %85 = getelementptr inbounds nuw %struct.pmix_tma, ptr %84, i32 0, i32 5
  %86 = load ptr, ptr %85, align 8, !tbaa !79
  %87 = icmp ne ptr null, %86
  br i1 %87, label %88, label %92

88:                                               ; preds = %81
  %89 = load ptr, ptr %15, align 8, !tbaa !70
  %90 = getelementptr inbounds nuw %struct.pmix_object_t, ptr %89, i32 0, i32 3
  %91 = load ptr, ptr %13, align 8, !tbaa !83
  call void @pmix_tma_free(ptr noundef %90, ptr noundef %91)
  br label %94

92:                                               ; preds = %81
  %93 = load ptr, ptr %13, align 8, !tbaa !83
  call void @free(ptr noundef %93) #10
  br label %94

94:                                               ; preds = %92, %88
  store ptr null, ptr %13, align 8, !tbaa !83
  br label %95

95:                                               ; preds = %94, %76
  call void @llvm.lifetime.end.p0(i64 8, ptr %15) #10
  br label %96

96:                                               ; preds = %95
  br label %97

97:                                               ; preds = %96
  br label %115

98:                                               ; preds = %63
  br label %99

99:                                               ; preds = %98
  %100 = load ptr, ptr %13, align 8, !tbaa !83
  %101 = getelementptr inbounds nuw %struct.pmix_cb_t, ptr %100, i32 0, i32 2
  %102 = getelementptr inbounds nuw %struct.pmix_lock_t, ptr %101, i32 0, i32 1
  call void @pmix_mutex_lock(ptr noundef %102)
  %103 = load ptr, ptr %13, align 8, !tbaa !83
  %104 = getelementptr inbounds nuw %struct.pmix_cb_t, ptr %103, i32 0, i32 2
  %105 = getelementptr inbounds nuw %struct.pmix_lock_t, ptr %104, i32 0, i32 3
  store volatile i8 0, ptr %105, align 8, !tbaa !65
  call void @pmix_atomic_wmb()
  %106 = load ptr, ptr %13, align 8, !tbaa !83
  %107 = getelementptr inbounds nuw %struct.pmix_cb_t, ptr %106, i32 0, i32 2
  %108 = getelementptr inbounds nuw %struct.pmix_lock_t, ptr %107, i32 0, i32 2
  %109 = call i32 @pthread_cond_broadcast(ptr noundef %108) #10
  %110 = load ptr, ptr %13, align 8, !tbaa !83
  %111 = getelementptr inbounds nuw %struct.pmix_cb_t, ptr %110, i32 0, i32 2
  %112 = getelementptr inbounds nuw %struct.pmix_lock_t, ptr %111, i32 0, i32 1
  call void @pmix_mutex_unlock(ptr noundef %112)
  br label %113

113:                                              ; preds = %99
  br label %114

114:                                              ; preds = %113
  br label %115

115:                                              ; preds = %114, %97
  call void @llvm.lifetime.end.p0(i64 8, ptr %14) #10
  call void @llvm.lifetime.end.p0(i64 8, ptr %13) #10
  ret void
}