; Function Attrs: nounwind uwtable
define internal void @fcb(i32 noundef %0, ptr noundef %1, i64 noundef %2, ptr noundef initializes((500, 504)) %3, ptr noundef readonly captures(address_is_null) %4, ptr noundef %5) #0 {
  %7 = getelementptr inbounds nuw i8, ptr %3, i64 500
  store i32 %0, ptr %7, align 4, !tbaa !69
  %8 = icmp eq i32 %0, 0
  %9 = icmp ne i64 %2, 0
  %or.cond = and i1 %8, %9
  br i1 %or.cond, label %10, label %.loopexit

10:                                               ; preds = %6
  %11 = tail call ptr @PMIx_Info_create(i64 noundef %2) #11
  %12 = getelementptr inbounds nuw i8, ptr %3, i64 1096
  %13 = load ptr, ptr %12, align 8, !tbaa !51
  %14 = getelementptr inbounds nuw i8, ptr %13, i64 16
  store ptr %11, ptr %14, align 8, !tbaa !113
  %15 = getelementptr inbounds nuw i8, ptr %13, i64 24
  store i64 %2, ptr %15, align 8, !tbaa !111
  br label %16

16:                                               ; preds = %10, %16
  %.040 = phi i64 [ 0, %10 ], [ %23, %16 ]
  %17 = load ptr, ptr %12, align 8, !tbaa !51
  %18 = getelementptr inbounds nuw i8, ptr %17, i64 16
  %19 = load ptr, ptr %18, align 8, !tbaa !113
  %20 = getelementptr inbounds nuw %struct.pmix_info, ptr %19, i64 %.040
  %21 = getelementptr inbounds nuw %struct.pmix_info, ptr %1, i64 %.040
  %22 = tail call i32 @PMIx_Info_xfer(ptr noundef %20, ptr noundef %21) #11
  %23 = add nuw i64 %.040, 1
  %exitcond.not = icmp eq i64 %23, %2
  br i1 %exitcond.not, label %.loopexit, label %16, !llvm.loop !123

.loopexit:                                        ; preds = %16, %6
  %.not = icmp eq ptr %4, null
  br i1 %.not, label %25, label %24

24:                                               ; preds = %.loopexit
  tail call void %4(ptr noundef %5) #11
  br label %25

25:                                               ; preds = %24, %.loopexit
  %26 = getelementptr inbounds nuw i8, ptr %3, i64 680
  %27 = load ptr, ptr %26, align 8, !tbaa !71
  %.not37 = icmp eq ptr %27, null
  br i1 %.not37, label %54, label %28

28:                                               ; preds = %25
  %29 = getelementptr inbounds nuw i8, ptr %3, i64 696
  %30 = load ptr, ptr %29, align 8, !tbaa !99
  tail call void %27(i32 noundef %0, ptr noundef %30) #11
  %31 = tail call i32 @pthread_mutex_lock(ptr noundef nonnull %3) #11
  %32 = icmp eq i32 %31, 35
  br i1 %32, label %33, label %pmix_obj_update.exit

33:                                               ; preds = %28
  %34 = tail call ptr @__errno_location() #13
  store i32 35, ptr %34, align 4, !tbaa !43
  tail call void @perror(ptr noundef nonnull @.str.8) #14
  tail call void @abort() #15
  unreachable

pmix_obj_update.exit:                             ; preds = %28
  %35 = getelementptr inbounds nuw i8, ptr %3, i64 48
  %36 = load i32, ptr %35, align 8, !tbaa !47
  %37 = add nsw i32 %36, -1
  store i32 %37, ptr %35, align 8, !tbaa !47
  %38 = tail call i32 @pthread_mutex_unlock(ptr noundef nonnull %3) #11
  %39 = icmp eq i32 %37, 0
  br i1 %39, label %40, label %61

40:                                               ; preds = %pmix_obj_update.exit
  %41 = getelementptr inbounds nuw i8, ptr %3, i64 40
  %42 = load ptr, ptr %41, align 8, !tbaa !46
  %43 = getelementptr inbounds nuw i8, ptr %42, i64 48
  %44 = load ptr, ptr %43, align 8, !tbaa !65
  %45 = load ptr, ptr %44, align 8, !tbaa !49
  %.not6.i = icmp eq ptr %45, null
  br i1 %.not6.i, label %pmix_obj_run_destructors.exit, label %.lr.ph.i

.lr.ph.i:                                         ; preds = %40, %.lr.ph.i
  %46 = phi ptr [ %48, %.lr.ph.i ], [ %45, %40 ]
  %.07.i = phi ptr [ %47, %.lr.ph.i ], [ %44, %40 ]
  tail call void %46(ptr noundef nonnull %3) #11
  %47 = getelementptr inbounds nuw i8, ptr %.07.i, i64 8
  %48 = load ptr, ptr %47, align 8, !tbaa !49
  %.not.i = icmp eq ptr %48, null
  br i1 %.not.i, label %pmix_obj_run_destructors.exit, label %.lr.ph.i, !llvm.loop !66

pmix_obj_run_destructors.exit:                    ; preds = %.lr.ph.i, %40
  %49 = getelementptr inbounds nuw i8, ptr %3, i64 96
  %50 = load ptr, ptr %49, align 8, !tbaa !98
  %.not38 = icmp eq ptr %50, null
  br i1 %.not38, label %53, label %51

51:                                               ; preds = %pmix_obj_run_destructors.exit
  %52 = getelementptr inbounds nuw i8, ptr %3, i64 56
  tail call void %50(ptr noundef nonnull %52, ptr noundef nonnull %3) #11
  br label %61

53:                                               ; preds = %pmix_obj_run_destructors.exit
  tail call void @free(ptr noundef nonnull %3) #11
  br label %61

54:                                               ; preds = %25
  %55 = getelementptr inbounds nuw i8, ptr %3, i64 400
  %56 = tail call i32 @pthread_mutex_lock(ptr noundef nonnull %55) #11
  %57 = getelementptr inbounds nuw i8, ptr %3, i64 488
  store volatile i8 0, ptr %57, align 8, !tbaa !67
  fence release
  %58 = getelementptr inbounds nuw i8, ptr %3, i64 440
  %59 = tail call i32 @pthread_cond_broadcast(ptr noundef nonnull %58) #11
  %60 = tail call i32 @pthread_mutex_unlock(ptr noundef nonnull %55) #11
  br label %61

61:                                               ; preds = %pmix_obj_update.exit, %53, %51, %54
  ret void
}